(dp1
S'output'
p2
S''
sS'layer'
p3
S'Framework'
p4
sS'code'
p5
S''
sS'snapshot'
p6
(dp7
S'exception'
p8
(dp9
S'__hash__'
p10
S"<method-wrapper '__hash__' of exceptions.KeyError object>"
p11
sS'__setattr__'
p12
S"<method-wrapper '__setattr__' of exceptions.KeyError object>"
p13
sS'__reduce_ex__'
p14
S'<built-in method __reduce_ex__ of exceptions.KeyError object>'
p15
sS'__getslice__'
p16
S"<method-wrapper '__getslice__' of exceptions.KeyError object>"
p17
sS'__getitem__'
p18
S"<method-wrapper '__getitem__' of exceptions.KeyError object>"
p19
sS'__setstate__'
p20
S'<built-in method __setstate__ of exceptions.KeyError object>'
p21
sS'args'
p22
S"('/home/stutisrivastava/web2py/applications/Test1/controllers/app.py',)"
p23
sS'__reduce__'
p24
S'<built-in method __reduce__ of exceptions.KeyError object>'
p25
sS'__str__'
p26
S"<method-wrapper '__str__' of exceptions.KeyError object>"
p27
sS'__format__'
p28
S'<built-in method __format__ of exceptions.KeyError object>'
p29
sS'__getattribute__'
p30
S"<method-wrapper '__getattribute__' of exceptions.KeyError object>"
p31
sS'__class__'
p32
S"<type 'exceptions.KeyError'>"
p33
sS'__unicode__'
p34
S'<built-in method __unicode__ of exceptions.KeyError object>'
p35
sS'__delattr__'
p36
S"<method-wrapper '__delattr__' of exceptions.KeyError object>"
p37
sS'__subclasshook__'
p38
S'<built-in method __subclasshook__ of type object>'
p39
sS'__repr__'
p40
S"<method-wrapper '__repr__' of exceptions.KeyError object>"
p41
sS'__dict__'
p42
S'{}'
p43
sS'__sizeof__'
p44
S'<built-in method __sizeof__ of exceptions.KeyError object>'
p45
sS'__doc__'
p46
S"'Mapping key not found.'"
p47
sS'__init__'
p48
S"<method-wrapper '__init__' of exceptions.KeyError object>"
p49
sS'__new__'
p50
S'<built-in method __new__ of type object>'
p51
ssS'evalue'
p52
S"'/home/stutisrivastava/web2py/applications/Test1/controllers/app.py'"
p53
sS'request'
p54
cgluon.html
XML_unpickle
p55
(S's\xc9^\x00\x00<div><table><tr><td style="font-weight:bold;vertical-align:top;">ajax</td><td style="vertical-align:top;">:</td><td><div>True</div></td></tr><tr><td style="font-weight:bold;vertical-align:top;">application</td><td style="vertical-align:top;">:</td><td><div>Test1</div></td></tr><tr><td style="font-weight:bold;vertical-align:top;">args</td><td style="vertical-align:top;">:</td><td><div><table></table></div></td></tr><tr><td style="font-weight:bold;vertical-align:top;">cid</td><td style="vertical-align:top;">:</td><td><div>c243417476683</div></td></tr><tr><td style="font-weight:bold;vertical-align:top;">client</td><td style="vertical-align:top;">:</td><td><div>127.0.0.1</div></td></tr><tr><td style="font-weight:bold;vertical-align:top;">controller</td><td style="vertical-align:top;">:</td><td><div>appadmin</div></td></tr><tr><td style="font-weight:bold;vertical-align:top;">cookies</td><td style="vertical-align:top;">:</td><td><div><table><tr><td style="font-weight:bold;vertical-align:top;">csrftoken</td><td style="vertical-align:top;">:</td><td><div>IgWny7K9u9haQRro2scg7HDTC6hkWSfh<table><tr><td style="font-weight:bold;vertical-align:top;">comment</td><td style="vertical-align:top;">:</td><td><div></div></td></tr><tr><td style="font-weight:bold;vertical-align:top;">domain</td><td style="vertical-align:top;">:</td><td><div></div></td></tr><tr><td style="font-weight:bold;vertical-align:top;">expires</td><td style="vertical-align:top;">:</td><td><div></div></td></tr><tr><td style="font-weight:bold;vertical-align:top;">httponly</td><td style="vertical-align:top;">:</td><td><div></div></td></tr><tr><td style="font-weight:bold;vertical-align:top;">max-age</td><td style="vertical-align:top;">:</td><td><div></div></td></tr><tr><td style="font-weight:bold;vertical-align:top;">path</td><td style="vertical-align:top;">:</td><td><div></div></td></tr><tr><td style="font-weight:bold;vertical-align:top;">secure</td><td style="vertical-align:top;">:</td><td><div></div></td></tr><tr><td style="font-weight:bold;vertical-align:top;">version</td><td style="vertical-align:top;">:</td><td><div></div></td></tr></table></div></td></tr><tr><td style="font-weight:bold;vertical-align:top;">session_id_admin</td><td style="vertical-align:top;">:</td><td><div>127.0.0.1-d447f11d-066e-4780-bd7f-97e17a70e569<table><tr><td style="font-weight:bold;vertical-align:top;">comment</td><td style="vertical-align:top;">:</td><td><div></div></td></tr><tr><td style="font-weight:bold;vertical-align:top;">domain</td><td style="vertical-align:top;">:</td><td><div></div></td></tr><tr><td style="font-weight:bold;vertical-align:top;">expires</td><td style="vertical-align:top;">:</td><td><div></div></td></tr><tr><td style="font-weight:bold;vertical-align:top;">httponly</td><td style="vertical-align:top;">:</td><td><div></div></td></tr><tr><td style="font-weight:bold;vertical-align:top;">max-age</td><td style="vertical-align:top;">:</td><td><div></div></td></tr><tr><td style="font-weight:bold;vertical-align:top;">path</td><td style="vertical-align:top;">:</td><td><div></div></td></tr><tr><td style="font-weight:bold;vertical-align:top;">secure</td><td style="vertical-align:top;">:</td><td><div></div></td></tr><tr><td style="font-weight:bold;vertical-align:top;">version</td><td style="vertical-align:top;">:</td><td><div></div></td></tr></table></div></td></tr><tr><td style="font-weight:bold;vertical-align:top;">session_id_test1</td><td style="vertical-align:top;">:</td><td><div>127.0.0.1-2cf3653c-9245-4a73-b140-789017c5d37a<table><tr><td style="font-weight:bold;vertical-align:top;">comment</td><td style="vertical-align:top;">:</td><td><div></div></td></tr><tr><td style="font-weight:bold;vertical-align:top;">domain</td><td style="vertical-align:top;">:</td><td><div></div></td></tr><tr><td style="font-weight:bold;vertical-align:top;">expires</td><td style="vertical-align:top;">:</td><td><div></div></td></tr><tr><td style="font-weight:bold;vertical-align:top;">httponly</td><td style="vertical-align:top;">:</td><td><div></div></td></tr><tr><td style="font-weight:bold;vertical-align:top;">max-age</td><td style="vertical-align:top;">:</td><td><div></div></td></tr><tr><td style="font-weight:bold;vertical-align:top;">path</td><td style="vertical-align:top;">:</td><td><div></div></td></tr><tr><td style="font-weight:bold;vertical-align:top;">secure</td><td style="vertical-align:top;">:</td><td><div></div></td></tr><tr><td style="font-weight:bold;vertical-align:top;">version</td><td style="vertical-align:top;">:</td><td><div></div></td></tr></table></div></td></tr></table></div></td></tr><tr><td style="font-weight:bold;vertical-align:top;">env</td><td style="vertical-align:top;">:</td><td><div><table><tr><td style="font-weight:bold;vertical-align:top;">HTTP_ACCEPT</td><td style="vertical-align:top;">:</td><td><div>*/*</div></td></tr><tr><td style="font-weight:bold;vertical-align:top;">HTTP_ACCEPT_ENCODING</td><td style="vertical-align:top;">:</td><td><div>gzip, deflate, sdch</div></td></tr><tr><td style="font-weight:bold;vertical-align:top;">HTTP_ACCEPT_LANGUAGE</td><td style="vertical-align:top;">:</td><td><div>en-US,en;q=0.8,hi;q=0.6</div></td></tr><tr><td style="font-weight:bold;vertical-align:top;">HTTP_CONNECTION</td><td style="vertical-align:top;">:</td><td><div>keep-alive</div></td></tr><tr><td style="font-weight:bold;vertical-align:top;">HTTP_COOKIE</td><td style="vertical-align:top;">:</td><td><div>csrftoken=IgWny7K9u9haQRro2scg7HDTC6hkWSfh; session_id_admin=127.0.0.1-d447f11d-066e-4780-bd7f-97e17a70e569; session_id_test1=127.0.0.1-2cf3653c-9245-4a73-b140-789017c5d37a</div></td></tr><tr><td style="font-weight:bold;vertical-align:top;">HTTP_HOST</td><td style="vertical-align:top;">:</td><td><div>127.0.0.1:8000</div></td></tr><tr><td style="font-weight:bold;vertical-align:top;">HTTP_REFERER</td><td style="vertical-align:top;">:</td><td><div>http://127.0.0.1:8000/admin/default/edit/Test1/controllers/default.py?id=controllers__default__py</div></td></tr><tr><td style="font-weight:bold;vertical-align:top;">HTTP_USER_AGENT</td><td style="vertical-align:top;">:</td><td><div>Mozilla/5.0 (X11; Linux x86_64) AppleWebKit/537.36 (KHTML, like Gecko) Chrome/49.0.2623.87 Safari/537.36</div></td></tr><tr><td style="font-weight:bold;vertical-align:top;">HTTP_WEB2PY_COMPONENT_ELEMENT</td><td style="vertical-align:top;">:</td><td><div>c243417476683</div></td></tr><tr><td style="font-weight:bold;vertical-align:top;">HTTP_WEB2PY_COMPONENT_LOCATION</td><td style="vertical-align:top;">:</td><td><div>http://127.0.0.1:8000/admin/default/edit/Test1/controllers/default.py?id=controllers__default__py</div></td></tr><tr><td style="font-weight:bold;vertical-align:top;">HTTP_X_REQUESTED_WITH</td><td style="vertical-align:top;">:</td><td><div>XMLHttpRequest</div></td></tr><tr><td style="font-weight:bold;vertical-align:top;">PATH_INFO</td><td style="vertical-align:top;">:</td><td><div>/Test1/appadmin/hooks</div></td></tr><tr><td style="font-weight:bold;vertical-align:top;">QUERY_STRING</td><td style="vertical-align:top;">:</td><td><div></div></td></tr><tr><td style="font-weight:bold;vertical-align:top;">REMOTE_ADDR</td><td style="vertical-align:top;">:</td><td><div>127.0.0.1</div></td></tr><tr><td style="font-weight:bold;vertical-align:top;">REMOTE_PORT</td><td style="vertical-align:top;">:</td><td><div>63392</div></td></tr><tr><td style="font-weight:bold;vertical-align:top;">REQUEST_METHOD</td><td style="vertical-align:top;">:</td><td><div>GET</div></td></tr><tr><td style="font-weight:bold;vertical-align:top;">SCRIPT_NAME</td><td style="vertical-align:top;">:</td><td><div></div></td></tr><tr><td style="font-weight:bold;vertical-align:top;">SERVER_NAME</td><td style="vertical-align:top;">:</td><td><div>stutisrivastava-Inspiron-3542</div></td></tr><tr><td style="font-weight:bold;vertical-align:top;">SERVER_PORT</td><td style="vertical-align:top;">:</td><td><div>8000</div></td></tr><tr><td style="font-weight:bold;vertical-align:top;">SERVER_PROTOCOL</td><td style="vertical-align:top;">:</td><td><div>HTTP/1.1</div></td></tr><tr><td style="font-weight:bold;vertical-align:top;">SERVER_SOFTWARE</td><td style="vertical-align:top;">:</td><td><div>Rocket 1.2.6</div></td></tr><tr><td style="font-weight:bold;vertical-align:top;">app_folders</td><td style="vertical-align:top;">:</td><td><div>set([&#x27;/home/stutisrivastava/web2py/applications/Test1/&#x27;, &#x27;/home/stutisrivastava/web2py/applications/admin/&#x27;])</div></td></tr><tr><td style="font-weight:bold;vertical-align:top;">applications_parent</td><td style="vertical-align:top;">:</td><td><div>/home/stutisrivastava/web2py</div></td></tr><tr><td style="font-weight:bold;vertical-align:top;">cmd_args</td><td style="vertical-align:top;">:</td><td><div><table></table></div></td></tr><tr><td style="font-weight:bold;vertical-align:top;">cmd_options</td><td style="vertical-align:top;">:</td><td><div>&lt;Values at 0x16cd488: {&#x27;verbose&#x27;: False, &#x27;ip&#x27;: &#x27;127.0.0.1&#x27;, &#x27;debuglevel&#x27;: 30, &#x27;with_scheduler&#x27;: False, &#x27;ips&#x27;: [&#x27;127.0.1.1&#x27;], &#x27;shutdown_timeout&#x27;: 5, &#x27;taskbar&#x27;: False, &#x27;with_coverage&#x27;: False, &#x27;scheduler_groups&#x27;: None, &#x27;port&#x27;: 8000, &#x27;maxthreads&#x27;: None, &#x27;softcron&#x27;: False, &#x27;server_name&#x27;: &#x27;stutisrivastava-Inspiron-3542&#x27;, &#x27;bpython&#x27;: False, &#x27;nogui&#x27;: True, &#x27;pid_filename&#x27;: &#x27;httpserver.pid&#x27;, &#x27;print_errors&#x27;: False, &#x27;extcron&#x27;: False, &#x27;runcron&#x27;: False, &#x27;run_system_tests&#x27;: False, &#x27;test&#x27;: None, &#x27;folder&#x27;: &#x27;/home/stutisrivastava/web2py&#x27;, &#x27;config&#x27;: &#x27;&#x27;, &#x27;minthreads&#x27;: None, &#x27;shell&#x27;: None, &#x27;run&#x27;: &#x27;&#x27;, &#x27;log_filename&#x27;: &#x27;httpserver.log&#x27;, &#x27;profiler_dir&#x27;: None, &#x27;args&#x27;: [&#x27;&#x27;], &#x27;socket_timeout&#x27;: 5, &#x27;ssl_ca_certificate&#x27;: None, &#x27;scheduler&#x27;: None, &#x27;interfaces&#x27;: None, &#x27;ssl_private_key&#x27;: &#x27;&#x27;, &#x27;gae&#x27;: None, &#x27;password&#x27;: &#x27;;0&#x27;, &#x27;request_queue_size&#x27;: 5, &#x27;ssl_certificate&#x27;: &#x27;&#x27;, &#x27;cronjob&#x27;: False, &#x27;numthreads&#x27;: None, &#x27;quiet&#x27;: False, &#x27;import_models&#x27;: False, &#x27;timeout&#x27;: 10, &#x27;plain&#x27;: False, &#x27;nobanner&#x27;: False}&gt;</div></td></tr><tr><td style="font-weight:bold;vertical-align:top;">db_sessions</td><td style="vertical-align:top;">:</td><td><div>set([])</div></td></tr><tr><td style="font-weight:bold;vertical-align:top;">debugging</td><td style="vertical-align:top;">:</td><td><div>True</div></td></tr><tr><td style="font-weight:bold;vertical-align:top;">gluon_parent</td><td style="vertical-align:top;">:</td><td><div>/home/stutisrivastava/web2py</div></td></tr><tr><td style="font-weight:bold;vertical-align:top;">http_accept</td><td style="vertical-align:top;">:</td><td><div>*/*</div></td></tr><tr><td style="font-weight:bold;vertical-align:top;">http_accept_encoding</td><td style="vertical-align:top;">:</td><td><div>gzip, deflate, sdch</div></td></tr><tr><td style="font-weight:bold;vertical-align:top;">http_accept_language</td><td style="vertical-align:top;">:</td><td><div>en-US,en;q=0.8,hi;q=0.6</div></td></tr><tr><td style="font-weight:bold;vertical-align:top;">http_connection</td><td style="vertical-align:top;">:</td><td><div>keep-alive</div></td></tr><tr><td style="font-weight:bold;vertical-align:top;">http_cookie</td><td style="vertical-align:top;">:</td><td><div>csrftoken=IgWny7K9u9haQRro2scg7HDTC6hkWSfh; session_id_admin=127.0.0.1-d447f11d-066e-4780-bd7f-97e17a70e569; session_id_test1=127.0.0.1-2cf3653c-9245-4a73-b140-789017c5d37a</div></td></tr><tr><td style="font-weight:bold;vertical-align:top;">http_host</td><td style="vertical-align:top;">:</td><td><div>127.0.0.1:8000</div></td></tr><tr><td style="font-weight:bold;vertical-align:top;">http_referer</td><td style="vertical-align:top;">:</td><td><div>http://127.0.0.1:8000/admin/default/edit/Test1/controllers/default.py?id=controllers__default__py</div></td></tr><tr><td style="font-weight:bold;vertical-align:top;">http_user_agent</td><td style="vertical-align:top;">:</td><td><div>Mozilla/5.0 (X11; Linux x86_64) AppleWebKit/537.36 (KHTML, like Gecko) Chrome/49.0.2623.87 Safari/537.36</div></td></tr><tr><td style="font-weight:bold;vertical-align:top;">http_web2py_component_element</td><td style="vertical-align:top;">:</td><td><div>c243417476683</div></td></tr><tr><td style="font-weight:bold;vertical-align:top;">http_web2py_component_location</td><td style="vertical-align:top;">:</td><td><div>http://127.0.0.1:8000/admin/default/edit/Test1/controllers/default.py?id=controllers__default__py</div></td></tr><tr><td style="font-weight:bold;vertical-align:top;">http_x_requested_with</td><td style="vertical-align:top;">:</td><td><div>XMLHttpRequest</div></td></tr><tr><td style="font-weight:bold;vertical-align:top;">is_jython</td><td style="vertical-align:top;">:</td><td><div>False</div></td></tr><tr><td style="font-weight:bold;vertical-align:top;">is_pypy</td><td style="vertical-align:top;">:</td><td><div>False</div></td></tr><tr><td style="font-weight:bold;vertical-align:top;">is_source</td><td style="vertical-align:top;">:</td><td><div>True</div></td></tr><tr><td style="font-weight:bold;vertical-align:top;">local_hosts</td><td style="vertical-align:top;">:</td><td><div><table><tr><td><div>::1</div></td></tr><tr><td><div>127.0.1.1</div></td></tr><tr><td><div>stutisrivastava-Inspiron-3542</div></td></tr><tr><td><div>::ffff:127.0.0.1</div></td></tr><tr><td><div>127.0.0.1</div></td></tr></table></div></td></tr><tr><td style="font-weight:bold;vertical-align:top;">path_info</td><td style="vertical-align:top;">:</td><td><div>/Test1/appadmin/hooks</div></td></tr><tr><td style="font-weight:bold;vertical-align:top;">query_string</td><td style="vertical-align:top;">:</td><td><div></div></td></tr><tr><td style="font-weight:bold;vertical-align:top;">remote_addr</td><td style="vertical-align:top;">:</td><td><div>127.0.0.1</div></td></tr><tr><td style="font-weight:bold;vertical-align:top;">remote_port</td><td style="vertical-align:top;">:</td><td><div>63392</div></td></tr><tr><td style="font-weight:bold;vertical-align:top;">request_method</td><td style="vertical-align:top;">:</td><td><div>GET</div></td></tr><tr><td style="font-weight:bold;vertical-align:top;">request_uri</td><td style="vertical-align:top;">:</td><td><div>/Test1/appadmin/hooks</div></td></tr><tr><td style="font-weight:bold;vertical-align:top;">script_name</td><td style="vertical-align:top;">:</td><td><div></div></td></tr><tr><td style="font-weight:bold;vertical-align:top;">server_name</td><td style="vertical-align:top;">:</td><td><div>stutisrivastava-Inspiron-3542</div></td></tr><tr><td style="font-weight:bold;vertical-align:top;">server_port</td><td style="vertical-align:top;">:</td><td><div>8000</div></td></tr><tr><td style="font-weight:bold;vertical-align:top;">server_protocol</td><td style="vertical-align:top;">:</td><td><div>HTTP/1.1</div></td></tr><tr><td style="font-weight:bold;vertical-align:top;">server_software</td><td style="vertical-align:top;">:</td><td><div>Rocket 1.2.6</div></td></tr><tr><td style="font-weight:bold;vertical-align:top;">web2py_path</td><td style="vertical-align:top;">:</td><td><div>/home/stutisrivastava/web2py</div></td></tr><tr><td style="font-weight:bold;vertical-align:top;">web2py_version</td><td style="vertical-align:top;">:</td><td><div>2.13.4-stable+timestamp.2015.12.26.04.59.39</div></td></tr><tr><td style="font-weight:bold;vertical-align:top;">wsgi.errors</td><td style="vertical-align:top;">:</td><td><div>&lt;open file &#x27;&lt;stderr&gt;&#x27;, mode &#x27;w&#x27; at 0x7ff28ce78270&gt;</div></td></tr><tr><td style="font-weight:bold;vertical-align:top;">wsgi.file_wrapper</td><td style="vertical-align:top;">:</td><td><div>&lt;class wsgiref.util.FileWrapper at 0x166ec18&gt;</div></td></tr><tr><td style="font-weight:bold;vertical-align:top;">wsgi.input</td><td style="vertical-align:top;">:</td><td><div>&lt;socket._fileobject object at 0x7ff2784230d0&gt;</div></td></tr><tr><td style="font-weight:bold;vertical-align:top;">wsgi.multiprocess</td><td style="vertical-align:top;">:</td><td><div>False</div></td></tr><tr><td style="font-weight:bold;vertical-align:top;">wsgi.multithread</td><td style="vertical-align:top;">:</td><td><div>True</div></td></tr><tr><td style="font-weight:bold;vertical-align:top;">wsgi.run_once</td><td style="vertical-align:top;">:</td><td><div>False</div></td></tr><tr><td style="font-weight:bold;vertical-align:top;">wsgi.url_scheme</td><td style="vertical-align:top;">:</td><td><div>http</div></td></tr><tr><td style="font-weight:bold;vertical-align:top;">wsgi.version</td><td style="vertical-align:top;">:</td><td><div><table><tr><td><div>1</div></td></tr><tr><td><div>0</div></td></tr></table></div></td></tr><tr><td style="font-weight:bold;vertical-align:top;">wsgi_errors</td><td style="vertical-align:top;">:</td><td><div>&lt;open file &#x27;&lt;stderr&gt;&#x27;, mode &#x27;w&#x27; at 0x7ff28ce78270&gt;</div></td></tr><tr><td style="font-weight:bold;vertical-align:top;">wsgi_file_wrapper</td><td style="vertical-align:top;">:</td><td><div>&lt;class wsgiref.util.FileWrapper at 0x166ec18&gt;</div></td></tr><tr><td style="font-weight:bold;vertical-align:top;">wsgi_input</td><td style="vertical-align:top;">:</td><td><div>&lt;socket._fileobject object at 0x7ff2784230d0&gt;</div></td></tr><tr><td style="font-weight:bold;vertical-align:top;">wsgi_multiprocess</td><td style="vertical-align:top;">:</td><td><div>False</div></td></tr><tr><td style="font-weight:bold;vertical-align:top;">wsgi_multithread</td><td style="vertical-align:top;">:</td><td><div>True</div></td></tr><tr><td style="font-weight:bold;vertical-align:top;">wsgi_run_once</td><td style="vertical-align:top;">:</td><td><div>False</div></td></tr><tr><td style="font-weight:bold;vertical-align:top;">wsgi_url_scheme</td><td style="vertical-align:top;">:</td><td><div>http</div></td></tr><tr><td style="font-weight:bold;vertical-align:top;">wsgi_version</td><td style="vertical-align:top;">:</td><td><div><table><tr><td><div>1</div></td></tr><tr><td><div>0</div></td></tr></table></div></td></tr></table></div></td></tr><tr><td style="font-weight:bold;vertical-align:top;">extension</td><td style="vertical-align:top;">:</td><td><div>html</div></td></tr><tr><td style="font-weight:bold;vertical-align:top;">folder</td><td style="vertical-align:top;">:</td><td><div>/home/stutisrivastava/web2py/applications/Test1/</div></td></tr><tr><td style="font-weight:bold;vertical-align:top;">function</td><td style="vertical-align:top;">:</td><td><div>hooks</div></td></tr><tr><td style="font-weight:bold;vertical-align:top;">global_settings</td><td style="vertical-align:top;">:</td><td><div><table><tr><td style="font-weight:bold;vertical-align:top;">app_folders</td><td style="vertical-align:top;">:</td><td><div>set([&#x27;/home/stutisrivastava/web2py/applications/Test1/&#x27;, &#x27;/home/stutisrivastava/web2py/applications/admin/&#x27;])</div></td></tr><tr><td style="font-weight:bold;vertical-align:top;">applications_parent</td><td style="vertical-align:top;">:</td><td><div>/home/stutisrivastava/web2py</div></td></tr><tr><td style="font-weight:bold;vertical-align:top;">cmd_args</td><td style="vertical-align:top;">:</td><td><div><table></table></div></td></tr><tr><td style="font-weight:bold;vertical-align:top;">cmd_options</td><td style="vertical-align:top;">:</td><td><div>&lt;Values at 0x16cd488: {&#x27;verbose&#x27;: False, &#x27;ip&#x27;: &#x27;127.0.0.1&#x27;, &#x27;debuglevel&#x27;: 30, &#x27;with_scheduler&#x27;: False, &#x27;ips&#x27;: [&#x27;127.0.1.1&#x27;], &#x27;shutdown_timeout&#x27;: 5, &#x27;taskbar&#x27;: False, &#x27;with_coverage&#x27;: False, &#x27;scheduler_groups&#x27;: None, &#x27;port&#x27;: 8000, &#x27;maxthreads&#x27;: None, &#x27;softcron&#x27;: False, &#x27;server_name&#x27;: &#x27;stutisrivastava-Inspiron-3542&#x27;, &#x27;bpython&#x27;: False, &#x27;nogui&#x27;: True, &#x27;pid_filename&#x27;: &#x27;httpserver.pid&#x27;, &#x27;print_errors&#x27;: False, &#x27;extcron&#x27;: False, &#x27;runcron&#x27;: False, &#x27;run_system_tests&#x27;: False, &#x27;test&#x27;: None, &#x27;folder&#x27;: &#x27;/home/stutisrivastava/web2py&#x27;, &#x27;config&#x27;: &#x27;&#x27;, &#x27;minthreads&#x27;: None, &#x27;shell&#x27;: None, &#x27;run&#x27;: &#x27;&#x27;, &#x27;log_filename&#x27;: &#x27;httpserver.log&#x27;, &#x27;profiler_dir&#x27;: None, &#x27;args&#x27;: [&#x27;&#x27;], &#x27;socket_timeout&#x27;: 5, &#x27;ssl_ca_certificate&#x27;: None, &#x27;scheduler&#x27;: None, &#x27;interfaces&#x27;: None, &#x27;ssl_private_key&#x27;: &#x27;&#x27;, &#x27;gae&#x27;: None, &#x27;password&#x27;: &#x27;;0&#x27;, &#x27;request_queue_size&#x27;: 5, &#x27;ssl_certificate&#x27;: &#x27;&#x27;, &#x27;cronjob&#x27;: False, &#x27;numthreads&#x27;: None, &#x27;quiet&#x27;: False, &#x27;import_models&#x27;: False, &#x27;timeout&#x27;: 10, &#x27;plain&#x27;: False, &#x27;nobanner&#x27;: False}&gt;</div></td></tr><tr><td style="font-weight:bold;vertical-align:top;">db_sessions</td><td style="vertical-align:top;">:</td><td><div>set([])</div></td></tr><tr><td style="font-weight:bold;vertical-align:top;">debugging</td><td style="vertical-align:top;">:</td><td><div>True</div></td></tr><tr><td style="font-weight:bold;vertical-align:top;">gluon_parent</td><td style="vertical-align:top;">:</td><td><div>/home/stutisrivastava/web2py</div></td></tr><tr><td style="font-weight:bold;vertical-align:top;">is_jython</td><td style="vertical-align:top;">:</td><td><div>False</div></td></tr><tr><td style="font-weight:bold;vertical-align:top;">is_pypy</td><td style="vertical-align:top;">:</td><td><div>False</div></td></tr><tr><td style="font-weight:bold;vertical-align:top;">is_source</td><td style="vertical-align:top;">:</td><td><div>True</div></td></tr><tr><td style="font-weight:bold;vertical-align:top;">local_hosts</td><td style="vertical-align:top;">:</td><td><div><table><tr><td><div>::1</div></td></tr><tr><td><div>127.0.1.1</div></td></tr><tr><td><div>stutisrivastava-Inspiron-3542</div></td></tr><tr><td><div>::ffff:127.0.0.1</div></td></tr><tr><td><div>127.0.0.1</div></td></tr></table></div></td></tr><tr><td style="font-weight:bold;vertical-align:top;">web2py_version</td><td style="vertical-align:top;">:</td><td><div>2.13.4-stable+timestamp.2015.12.26.04.59.39</div></td></tr></table></div></td></tr><tr><td style="font-weight:bold;vertical-align:top;">is_https</td><td style="vertical-align:top;">:</td><td><div>False</div></td></tr><tr><td style="font-weight:bold;vertical-align:top;">is_local</td><td style="vertical-align:top;">:</td><td><div>True</div></td></tr><tr><td style="font-weight:bold;vertical-align:top;">is_restful</td><td style="vertical-align:top;">:</td><td><div>False</div></td></tr><tr><td style="font-weight:bold;vertical-align:top;">is_scheduler</td><td style="vertical-align:top;">:</td><td><div>False</div></td></tr><tr><td style="font-weight:bold;vertical-align:top;">is_shell</td><td style="vertical-align:top;">:</td><td><div>False</div></td></tr><tr><td style="font-weight:bold;vertical-align:top;">now</td><td style="vertical-align:top;">:</td><td><div>datetime.datetime(2016, 4, 5, 7, 21, 20, 641265)</div></td></tr><tr><td style="font-weight:bold;vertical-align:top;">raw_args</td><td style="vertical-align:top;">:</td><td><div></div></td></tr><tr><td style="font-weight:bold;vertical-align:top;">raw_extension</td><td style="vertical-align:top;">:</td><td><div>None</div></td></tr><tr><td style="font-weight:bold;vertical-align:top;">url</td><td style="vertical-align:top;">:</td><td><div>/Test1/appadmin/hooks</div></td></tr><tr><td style="font-weight:bold;vertical-align:top;">utcnow</td><td style="vertical-align:top;">:</td><td><div>datetime.datetime(2016, 4, 5, 1, 51, 20, 641285)</div></td></tr><tr><td style="font-weight:bold;vertical-align:top;">wsgi</td><td style="vertical-align:top;">:</td><td><div>&lt;gluon.main.LazyWSGI object at 0x7ff26c143e10&gt;</div></td></tr></table></div>'
tRp56
sS'frames'
p57
(lp58
(dp59
S'file'
p60
S'/home/stutisrivastava/web2py/gluon/main.py'
p61
sS'dump'
p62
(dp63
S'gluon.debug.dbg.do_debug'
p64
S'<bound method Qdb.do_debug of <gluon.contrib.qdb.Qdb instance>>'
p65
sS'gluon.debug'
p66
S"<module 'gluon.debug' from '/home/stutisrivastava/web2py/gluon/debug.pyc'>"
p67
sS'gluon.debug.dbg'
p68
S'<gluon.contrib.qdb.Qdb instance>'
p69
sS'request'
p70
S"<Storage {'_vars': None, 'function': 'hooks', 'c...ome/stutisrivastava/web2py/applications/Test1/'}>"
p71
sS'gluon'
p72
S"<module 'gluon' from '/home/stutisrivastava/web2py/gluon/__init__.pyc'>"
p73
sS'request.folder'
p74
S"'/home/stutisrivastava/web2py/applications/Test1/'"
p75
sS'mainpyfile'
p76
S'undefined'
p77
ssS'lnum'
p78
I448
sS'lines'
p79
(dp80
I448
S'                    gluon.debug.dbg.do_debug(mainpyfile=request.folder)'
p81
sI449
S''
sI450
S'                serve_controller(request, response, session)'
p82
sI451
S''
sI452
S'            except HTTP, http_response:'
p83
sI443
S'                # ##################################################'
p84
sI444
S''
sI445
S'                if global_settings.debugging and app != "admin":'
p85
sI446
S'                    import gluon.debug'
p86
sI447
S'                    # activate the debugger'
p87
ssS'call'
p88
S"(environ={'HTTP_ACCEPT': '*/*', 'HTTP_ACCEPT_ENCODING': 'gzip, deflate, sdch', 'HTTP_ACCEPT_LANGUAGE': 'en-US,en;q=0.8,hi;q=0.6', 'HTTP_CONNECTION': 'keep-alive', 'HTTP_COOKIE': 'csrftoken=IgWny7K9u9haQRro2scg7HDTC6hkWSfh; sess...t1=127.0.0.1-2cf3653c-9245-4a73-b140-789017c5d37a', 'HTTP_HOST': '127.0.0.1:8000', 'HTTP_REFERER': 'http://127.0.0.1:8000/admin/default/edit/Test1/controllers/default.py?id=controllers__default__py', 'HTTP_USER_AGENT': 'Mozilla/5.0 (X11; Linux x86_64) AppleWebKit/537....ML, like Gecko) Chrome/49.0.2623.87 Safari/537.36', 'HTTP_WEB2PY_COMPONENT_ELEMENT': 'c243417476683', 'HTTP_WEB2PY_COMPONENT_LOCATION': 'http://127.0.0.1:8000/admin/default/edit/Test1/controllers/default.py?id=controllers__default__py', ...}, responder=<function responder2>)"
p89
sS'func'
p90
S'wsgibase'
p91
sa(dp92
g60
S'/home/stutisrivastava/web2py/gluon/contrib/qdb.py'
p93
sg62
(dp94
S'self'
p95
S'<gluon.contrib.qdb.Qdb instance>'
p96
sS'self.reset'
p97
S'<bound method Qdb.reset of <gluon.contrib.qdb.Qdb instance>>'
p98
ssg78
I214
sg79
(dp99
I209
S'        finally:'
p100
sI210
S'            self.waiting = False'
p101
sI211
S'        self.frame = None'
p102
sI212
S''
sI213
S'    def do_debug(self, mainpyfile=None, wait_breakpoint=1):'
p103
sI214
S'        self.reset()'
p104
sI215
S'        if not wait_breakpoint or mainpyfile:'
p105
sI216
S'            self._wait_for_mainpyfile = 1'
p106
sI217
S'            if not mainpyfile:'
p107
sI218
S'                frame = sys._getframe().f_back'
p108
ssg88
S"(self=<gluon.contrib.qdb.Qdb instance>, mainpyfile='/home/stutisrivastava/web2py/applications/Test1/', wait_breakpoint=1)"
p109
sg90
S'do_debug'
p110
sa(dp111
g60
S'/home/stutisrivastava/web2py/gluon/contrib/qdb.py'
p112
sg62
(dp113
S'bdb.Bdb.reset'
p114
S'<unbound method Bdb.reset>'
p115
sS'self'
p116
S'<gluon.contrib.qdb.Qdb instance>'
p117
sS'global bdb'
p118
S"<module 'bdb' from '/usr/lib/python2.7/bdb.pyc'>"
p119
sS'bdb.Bdb'
p120
S'<class bdb.Bdb>'
p121
ssg78
I440
sg79
(dp122
I435
S'        assignment of the _ variable in the builtins.'
p123
sI436
S'        """'
p124
sI437
S'        self.displayhook_value = repr(obj)'
p125
sI438
S''
sI439
S'    def reset(self):'
p126
sI440
S'        bdb.Bdb.reset(self)'
p127
sI441
S'        self.waiting = False'
p128
sI442
S'        self.frame = None'
p129
sI443
S''
sI444
S'    def post_mortem(self, t=None):'
p130
ssg88
S'(self=<gluon.contrib.qdb.Qdb instance>)'
p131
sg90
S'reset'
p132
sa(dp133
g60
S'/usr/lib/python2.7/bdb.py'
p134
sg62
(dp135
S'linecache'
p136
S"<module 'linecache' from '/usr/lib/python2.7/linecache.pyc'>"
p137
sS'linecache.checkcache'
p138
S'<function checkcache>'
p139
ssg78
I40
sg79
(dp140
I35
S'            self.fncache[filename] = canonic'
p141
sI36
S'        return canonic'
p142
sI37
S''
sI38
S'    def reset(self):'
p143
sI39
S'        import linecache'
p144
sI40
S'        linecache.checkcache()'
p145
sI41
S'        self.botframe = None'
p146
sI42
S'        self._set_stopinfo(None, None)'
p147
sI43
S''
sI44
S'    def trace_dispatch(self, frame, event, arg):'
p148
ssg88
S'(self=<gluon.contrib.qdb.Qdb instance>)'
p149
sg90
g132
sa(dp150
g60
S'/usr/lib/python2.7/linecache.py'
p151
sg62
(dp152
S'global cache'
p153
S'{\'/home/stutisrivastava/web2py/gluon/contrib/qdb.py\': (32143, 1451105930.0, [\'#!/usr/bin/env python\\n\', \'# coding:utf-8\\n\', \'\\n\', \'"Queues(Pipe)-based independent remote client-server Python Debugger"\\n\', \'\\n\', \'__author__ = "Mariano Reingart (reingart@gmail.com)"\\n\', \'__copyright__ = "Copyright (C) 2011 Mariano Reingart"\\n\', \'__license__ = "LGPL 3.0"\\n\', \'__version__ = "1.01b"\\n\', \'\\n\', \'# remote debugger queue-based (jsonrpc-like interface):\\n\', \'# - bidirectional communication (request - response calls in both ways)\\n\', \'# - request with id == null is a notification (do not send a response)\\n\', \'# - request with a value for id is a normal call, wait response\\n\', \'# based on idle, inspired by pythonwin implementation, taken many code from pdb\\n\', \'\\n\', \'import bdb\\n\', \'import inspect\\n\', \'import linecache\\n\', \'import os\\n\', ...], \'/home/stutisrivastava/web2py/gluon/contrib/qdb.py\'), \'/home/stutisrivastava/web2py/gluon/globals.py\': (47152, 1451105931.0, [\'#!/usr/bin/env python\\n\', \'# -*- coding: utf-8 -*-\\n\', \'\\n\', \'"""\\n\', \'| This file is part of the web2py Web Framework\\n\', \'| Copyrighted by Massimo Di Pierro <mdipierro@cs.depaul.edu>\\n\', \'| License: LGPLv3 (http://www.gnu.org/licenses/lgpl.html)\\n\', \'\\n\', \'Contains the classes for the global used variables:\\n\', \'\\n\', \'- Request\\n\', \'- Response\\n\', \'- Session\\n\', \'\\n\', \'"""\\n\', \'\\n\', \'from gluon.storage import Storage, List\\n\', \'from gluon.streamer import streamer, stream_file_or_304_or_206, DEFAULT_CHUNK_SIZE\\n\', \'from gluon.xmlrpc import handler\\n\', \'from gluon.contenttype import contenttype\\n\', ...], \'/home/stutisrivastava/web2py/gluon/globals.py\'), \'/home/stutisrivastava/web2py/gluon/main.py\': (30003, 1451105931.0, [\'#!/bin/env python\\n\', \'# -*- coding: utf-8 -*-\\n\', \'\\n\', \'"""\\n\', \'| This file is part of the web2py Web Framework\\n\', \'| Copyrighted by Massimo Di Pierro <mdipierro@cs.depaul.edu>\\n\', \'| License: LGPLv3 (http://www.gnu.org/licenses/lgpl.html)\\n\', \'\\n\', \'The gluon wsgi application\\n\', \'---------------------------\\n\', \'"""\\n\', \'\\n\', \'if False: import import_all # DO NOT REMOVE PART OF FREEZE PROCESS\\n\', \'import gc\\n\', \'import Cookie\\n\', \'import os\\n\', \'import re\\n\', \'import copy\\n\', \'import sys\\n\', \'import time\\n\', ...], \'/home/stutisrivastava/web2py/gluon/main.py\'), \'/home/stutisrivastava/web2py/gluon/packages/dal/pydal/objects.py\': (103800, 1451105986.0, [\'# -*- coding: utf-8 -*-\\n\', \'\\n\', \'import base64\\n\', \'import cgi\\n\', \'import copy\\n\', \'import csv\\n\', \'import datetime\\n\', \'import decimal\\n\', \'import os\\n\', \'import shutil\\n\', \'import sys\\n\', \'import types\\n\', \'\\n\', \'from ._compat import PY2, StringIO, pjoin, exists, hashlib_md5, \\\\\\n\', \'    integer_types, basestring, iteritems, xrange, implements_iterator, \\\\\\n\', \'    implements_bool, copyreg, reduce\\n\', \'from ._globals import DEFAULT, IDENTITY, AND, OR\\n\', \'from ._gae import Key\\n\', \'from .exceptions import NotFoundException, NotAuthorizedException\\n\', \'from .helpers.regex import REGEX_TABLE_DOT_FIELD, REGEX_ALPHANUMERIC, \\\\\\n\', ...], \'/home/stutisrivastava/web2py/gluon/packages/dal/pydal/objects.py\'), \'/home/stutisrivastava/web2py/gluon/restricted.py\': (10809, 1451105931.0, [\'#!/usr/bin/env python\\n\', \'# -*- coding: utf-8 -*-\\n\', \'"""\\n\', \'| This file is part of the web2py Web Framework\\n\', \'| Copyrighted by Massimo Di Pierro <mdipierro@cs.depaul.edu>\\n\', \'| License: LGPLv3 (http://www.gnu.org/licenses/lgpl.html)\\n\', \'\\n\', "Restricted environment to execute application\'s code\\n", \'-----------------------------------------------------\\n\', \'"""\\n\', \'\\n\', \'import sys\\n\', \'try:\\n\', \'    import cPickle as pickle\\n\', \'except:\\n\', \'    import pickle\\n\', \'import traceback\\n\', \'import types\\n\', \'import os\\n\', \'import logging\\n\', ...], \'/home/stutisrivastava/web2py/gluon/restricted.py\'), \'/usr/lib/python2.7/bdb.py\': (21084, 1435003150.0, [\'"""Debugger basics"""\\n\', \'\\n\', \'import fnmatch\\n\', \'import sys\\n\', \'import os\\n\', \'import types\\n\', \'\\n\', \'__all__ = ["BdbQuit","Bdb","Breakpoint"]\\n\', \'\\n\', \'class BdbQuit(Exception):\\n\', \'    """Exception to give up completely"""\\n\', \'\\n\', \'\\n\', \'class Bdb:\\n\', \'\\n\', \'    """Generic Python debugger base class.\\n\', \'\\n\', \'    This class takes care of details of the trace facility;\\n\', \'    a derived class should implement user interaction.\\n\', \'    The standard debugger class (pdb.Pdb) is an example.\\n\', ...], \'/usr/lib/python2.7/bdb.py\'), \'/usr/lib/python2.7/linecache.py\': (4118, 1435003150.0, [\'"""Cache lines from files.\\n\', \'\\n\', \'This is intended to read lines from modules imported -- hence if a filename\\n\', \'is not found, it will look down the module search path for a file by\\n\', \'that name.\\n\', \'"""\\n\', \'\\n\', \'import sys\\n\', \'import os\\n\', \'\\n\', \'__all__ = ["getline", "clearcache", "checkcache"]\\n\', \'\\n\', \'def getline(filename, lineno, module_globals=None):\\n\', \'    lines = getlines(filename, module_globals)\\n\', \'    if 1 <= lineno <= len(lines):\\n\', \'        return lines[lineno-1]\\n\', \'    else:\\n\', "        return \'\'\\n", \'\\n\', \'\\n\', ...], \'/usr/lib/python2.7/linecache.py\')}'
p154
sS'filename'
p155
S"'/home/stutisrivastava/web2py/applications/Test1/controllers/app.py'"
p156
ssg78
I65
sg79
(dp157
I64
S'        if size != stat.st_size or mtime != stat.st_mtime:'
p158
sI65
S'            del cache[filename]'
p159
sI66
S''
sI67
S''
sI68
S'def updatecache(filename, module_globals=None):'
p160
sI69
S'    """Update a cache entry and return its list of lines.'
p161
sI60
S'            stat = os.stat(fullname)'
p162
sI61
S'        except os.error:'
p163
sI62
S'            del cache[filename]'
p164
sI63
S'            continue'
p165
ssg88
S"(filename='/home/stutisrivastava/web2py/applications/Test1/controllers/app.py')"
p166
sg90
S'checkcache'
p167
sasS'pyver'
p168
S'Python 2.7.3: /usr/bin/python (prefix: /usr)'
p169
sS'session'
p170
g55
(S's\x1a\x00\x00\x00<div><table></table></div>'
tRp171
sS'etype'
p172
S"<type 'exceptions.KeyError'>"
p173
sS'date'
p174
S'Tue Apr  5 07:21:20 2016'
p175
sS'response'
p176
g55
(S's\x0b\x15\x00\x00<div><table><tr><td style="font-weight:bold;vertical-align:top;">body</td><td style="vertical-align:top;">:</td><td><div>&lt;cStringIO.StringO object at 0x7ff27872bf80&gt;</div></td></tr><tr><td style="font-weight:bold;vertical-align:top;">cookies</td><td style="vertical-align:top;">:</td><td><div><table><tr><td style="font-weight:bold;vertical-align:top;">session_id_test1</td><td style="vertical-align:top;">:</td><td><div>127.0.0.1-0226885c-e4f6-494a-8bf2-a9fee6db4f0c<table><tr><td style="font-weight:bold;vertical-align:top;">comment</td><td style="vertical-align:top;">:</td><td><div></div></td></tr><tr><td style="font-weight:bold;vertical-align:top;">domain</td><td style="vertical-align:top;">:</td><td><div></div></td></tr><tr><td style="font-weight:bold;vertical-align:top;">expires</td><td style="vertical-align:top;">:</td><td><div></div></td></tr><tr><td style="font-weight:bold;vertical-align:top;">httponly</td><td style="vertical-align:top;">:</td><td><div></div></td></tr><tr><td style="font-weight:bold;vertical-align:top;">max-age</td><td style="vertical-align:top;">:</td><td><div></div></td></tr><tr><td style="font-weight:bold;vertical-align:top;">path</td><td style="vertical-align:top;">:</td><td><div>/</div></td></tr><tr><td style="font-weight:bold;vertical-align:top;">secure</td><td style="vertical-align:top;">:</td><td><div></div></td></tr><tr><td style="font-weight:bold;vertical-align:top;">version</td><td style="vertical-align:top;">:</td><td><div></div></td></tr></table></div></td></tr></table></div></td></tr><tr><td style="font-weight:bold;vertical-align:top;">delimiters</td><td style="vertical-align:top;">:</td><td><div><table><tr><td><div>{{</div></td></tr><tr><td><div>}}</div></td></tr></table></div></td></tr><tr><td style="font-weight:bold;vertical-align:top;">files</td><td style="vertical-align:top;">:</td><td><div><table></table></div></td></tr><tr><td style="font-weight:bold;vertical-align:top;">flash</td><td style="vertical-align:top;">:</td><td><div></div></td></tr><tr><td style="font-weight:bold;vertical-align:top;">form_label_separator</td><td style="vertical-align:top;">:</td><td><div>: </div></td></tr><tr><td style="font-weight:bold;vertical-align:top;">formstyle</td><td style="vertical-align:top;">:</td><td><div>table3cols</div></td></tr><tr><td style="font-weight:bold;vertical-align:top;">generic_patterns</td><td style="vertical-align:top;">:</td><td><div><table><tr><td><div>*</div></td></tr></table></div></td></tr><tr><td style="font-weight:bold;vertical-align:top;">headers</td><td style="vertical-align:top;">:</td><td><div><table><tr><td style="font-weight:bold;vertical-align:top;">X-Powered-By</td><td style="vertical-align:top;">:</td><td><div>web2py</div></td></tr></table></div></td></tr><tr><td style="font-weight:bold;vertical-align:top;">menu</td><td style="vertical-align:top;">:</td><td><div><table></table></div></td></tr><tr><td style="font-weight:bold;vertical-align:top;">meta</td><td style="vertical-align:top;">:</td><td><div><table></table></div></td></tr><tr><td style="font-weight:bold;vertical-align:top;">postprocessing</td><td style="vertical-align:top;">:</td><td><div><table></table></div></td></tr><tr><td style="font-weight:bold;vertical-align:top;">session_client</td><td style="vertical-align:top;">:</td><td><div>127.0.0.1</div></td></tr><tr><td style="font-weight:bold;vertical-align:top;">session_cookie_compression_level</td><td style="vertical-align:top;">:</td><td><div>None</div></td></tr><tr><td style="font-weight:bold;vertical-align:top;">session_cookie_expires</td><td style="vertical-align:top;">:</td><td><div>None</div></td></tr><tr><td style="font-weight:bold;vertical-align:top;">session_cookie_key</td><td style="vertical-align:top;">:</td><td><div>None</div></td></tr><tr><td style="font-weight:bold;vertical-align:top;">session_data_name</td><td style="vertical-align:top;">:</td><td><div>session_data_test1</div></td></tr><tr><td style="font-weight:bold;vertical-align:top;">session_file</td><td style="vertical-align:top;">:</td><td><div>None</div></td></tr><tr><td style="font-weight:bold;vertical-align:top;">session_filename</td><td style="vertical-align:top;">:</td><td><div>/home/stutisrivastava/web2py/applications/Test1/sessions/127.0.0.1-0226885c-e4f6-494a-8bf2-a9fee6db4f0c</div></td></tr><tr><td style="font-weight:bold;vertical-align:top;">session_hash</td><td style="vertical-align:top;">:</td><td><div>c0762cbf4baf7f9af97c051e7fcb8083</div></td></tr><tr><td style="font-weight:bold;vertical-align:top;">session_id</td><td style="vertical-align:top;">:</td><td><div>127.0.0.1-0226885c-e4f6-494a-8bf2-a9fee6db4f0c</div></td></tr><tr><td style="font-weight:bold;vertical-align:top;">session_id_name</td><td style="vertical-align:top;">:</td><td><div>session_id_test1</div></td></tr><tr><td style="font-weight:bold;vertical-align:top;">session_masterapp</td><td style="vertical-align:top;">:</td><td><div>Test1</div></td></tr><tr><td style="font-weight:bold;vertical-align:top;">session_new</td><td style="vertical-align:top;">:</td><td><div>True</div></td></tr><tr><td style="font-weight:bold;vertical-align:top;">session_storage_type</td><td style="vertical-align:top;">:</td><td><div>file</div></td></tr><tr><td style="font-weight:bold;vertical-align:top;">status</td><td style="vertical-align:top;">:</td><td><div>200</div></td></tr></table></div>'
tRp177
sS'locals'
p178
(dp179
S'stat'
p180
S'posix.stat_result(st_mode=33204, st_ino=12851402...821080, st_mtime=1459821079, st_ctime=1459821079)'
p181
sg79
S'[\'## -*- coding: utf-8 -*-\\n\', \'# try something like\\n\', "error_message= \'\'\\n", \'from random import randint\\n\', \'@service.json\\n\', \'def shopkeeper_login(shopkeeper_id):\\n\', \'    rows = db(db.tbl_shopkeeper.id==shopkeeper_id).select()\\n\', \'    shopkeeper=rows[0]\\n\', \'    if shopkeeper.shopkeeper_password is None:\\n\', \'        n = randint(4, 6)\\n\', \'        range_start = 10**(n-1)\\n\', \'        range_end = (10**n)-1\\n\', \'        otp = randint(range_start, range_end)\\n\', "        message = \'No password set yet,otp : \'+str(otp)\\n", \'    return dict(message=message)\\n\', \'\\n\', \'def call():\\n\', \'    session.forget()\\n\', \'    return service()\\n\', \'\\n\', ...]'
p182
sS'filenames'
p183
S"['/home/stutisrivastava/web2py/applications/Test1/controllers/app.py', '/home/stutisrivastava/web2py/gluon/packages/dal/pydal/objects.py', '/home/stutisrivastava/web2py/gluon/restricted.py', '/home/stutisrivastava/web2py/gluon/globals.py']"
p184
sS'mtime'
p185
S'1459820930.6355994'
p186
sS'fullname'
p187
S"'/home/stutisrivastava/web2py/applications/Test1/controllers/app.py'"
p188
sS'filename'
p189
S"'/home/stutisrivastava/web2py/applications/Test1/controllers/app.py'"
p190
sS'size'
p191
S'8658'
p192
sssS'traceback'
p193
S'Traceback (most recent call last):\n  File "/home/stutisrivastava/web2py/gluon/main.py", line 448, in wsgibase\n    gluon.debug.dbg.do_debug(mainpyfile=request.folder)\n  File "/home/stutisrivastava/web2py/gluon/contrib/qdb.py", line 214, in do_debug\n    self.reset()\n  File "/home/stutisrivastava/web2py/gluon/contrib/qdb.py", line 440, in reset\n    bdb.Bdb.reset(self)\n  File "/usr/lib/python2.7/bdb.py", line 40, in reset\n    linecache.checkcache()\n  File "/usr/lib/python2.7/linecache.py", line 65, in checkcache\n    del cache[filename]\nKeyError: \'/home/stutisrivastava/web2py/applications/Test1/controllers/app.py\'\n'
p194
s.