(dp1
S'output'
p2
S"<type 'exceptions.NameError'> global name 'shopkeeper_password' is not defined"
p3
sS'layer'
p4
S'/home/stutisrivastava/web2py/applications/Test1/controllers/app.py'
p5
sS'code'
p6
S"# -*- coding: utf-8 -*-\n# try something like\nfrom random import randint\n@service.json\ndef shopkeeper_login(shopkeeper_id):\n    rows = db(db.tbl_shopkeeper.id==shopkeeper_id).select()\n    shopkeeper=rows[0]\n    if shopkeeper.shopkeeper_password is None:\n        n = randint(4, 6)\n        range_start = 10**(n-1)\n        range_end = (10**n)-1\n        otp = randint(range_start, range_end)\n        message = 'No password set yet,otp : '+str(otp)\n    return dict(message=message)\n\ndef call():\n    session.forget()\n    return service()\n\n@request.restful()\ndef api():\n    response.view = 'generic.json'\n    def GET(tablename,id):\n        if not tablename=='tbl_shopkeeper': raise HTTP(400)\n        shopkeeper = db.tbl_shopkeeper(id)\n        if shopkeeper[shopkeeper_password] is None:\n            n = randint(4, 6)\n            range_start = 10**(n-1)\n            range_end = (10**n)-1\n            otp = randint(range_start, range_end)\n            shopkeeper_details = {'shopkeeper_id':id,'otp':otp}\n        return dict(success='OK',shopkeeper_details = shopkeeper_details)\n    def POST(tablename,**fields):\n        if not tablename=='person': raise HTTP(400)\n        return db.person.validate_and_insert(**fields)\n    return locals()\n\nresponse._vars=response._caller(api)\n"
p7
sS'snapshot'
p8
(dp9
sS'traceback'
p10
S'Traceback (most recent call last):\n  File "/home/stutisrivastava/web2py/gluon/restricted.py", line 227, in restricted\n    exec ccode in environment\n  File "/home/stutisrivastava/web2py/applications/Test1/controllers/app.py", line 38, in <module>\n  File "/home/stutisrivastava/web2py/gluon/globals.py", line 412, in <lambda>\n    self._caller = lambda f: f()\n  File "/home/stutisrivastava/web2py/gluon/globals.py", line 378, in f\n    return rest_action(*_self.args, **getattr(_self, \'vars\', {}))\n  File "/home/stutisrivastava/web2py/applications/Test1/controllers/app.py", line 26, in GET\n    if shopkeeper[shopkeeper_password] is None:\nNameError: global name \'shopkeeper_password\' is not defined\n'
p11
s.