(dp1
S'output'
p2
S"<type 'exceptions.TypeError'> <pydal.helpers.classes.RecordUpdater object at 0x7ff278708ed0> is not JSON serializable"
p3
sS'layer'
p4
S'/home/stutisrivastava/web2py/applications/Test1/views/generic.json'
p5
sS'code'
p6
S"from gluon.serializers import json\nresponse.write(XML(json(response._vars)))\nresponse.write('\\n', escape=False)"
p7
sS'snapshot'
p8
(dp9
sS'traceback'
p10
S'Traceback (most recent call last):\n  File "/home/stutisrivastava/web2py/gluon/restricted.py", line 227, in restricted\n    exec ccode in environment\n  File "/home/stutisrivastava/web2py/applications/Test1/views/generic.json", line 2, in <module>\n  File "/home/stutisrivastava/web2py/gluon/serializers.py", line 135, in json\n    value = json_parser.dumps(value, default=default, use_decimal=False)\n  File "/usr/lib/python2.7/dist-packages/simplejson/__init__.py", line 296, in dumps\n    **kw).encode(obj)\n  File "/usr/lib/python2.7/dist-packages/simplejson/encoder.py", line 226, in encode\n    chunks = self.iterencode(o, _one_shot=True)\n  File "/usr/lib/python2.7/dist-packages/simplejson/encoder.py", line 296, in iterencode\n    return _iterencode(o, 0)\n  File "/home/stutisrivastava/web2py/gluon/serializers.py", line 110, in custom_json\n    raise TypeError(repr(o) + " is not JSON serializable")\nTypeError: <pydal.helpers.classes.RecordUpdater object at 0x7ff278708ed0> is not JSON serializable\n'
p11
s.